target datalayout = "e-m:e-p270:32:32-p271:32:32-p272:64:64-i64:64-i128:128-f80:128-n8:16:32:64-S128"
target triple = "x86_64-unknown-linux-gnu"

%struct.z_stream_s = type { ptr, i32, i64, ptr, i32, i64, ptr, ptr, ptr, ptr, ptr, i32, i64, i64, i32 }

@x86_cpu_enable_simd = external global i32, align 4

; Function Attrs: nounwind uwtable
define dso_local void @MOZ_Z__copy_with_crc(ptr noundef %strm, ptr noundef %dst, i64 noundef %size) #0 {
entry:
  %strm.addr = alloca ptr, align 8
  %dst.addr = alloca ptr, align 8
  %size.addr = alloca i64, align 8
  store ptr %strm, ptr %strm.addr, align 8
  store ptr %dst, ptr %dst.addr, align 8
  store i64 %size, ptr %size.addr, align 8
  %0 = load i32, ptr @x86_cpu_enable_simd, align 4
  %tobool = icmp ne i32 %0, 0
  br i1 %tobool, label %if.then, label %if.end

if.then:                                          ; preds = %entry
  %1 = load ptr, ptr %strm.addr, align 8
  %state = getelementptr inbounds %struct.z_stream_s, ptr %1, i32 0, i32 7
  %2 = load ptr, ptr %state, align 8
  %3 = load ptr, ptr %dst.addr, align 8
  %4 = load ptr, ptr %strm.addr, align 8
  %next_in = getelementptr inbounds %struct.z_stream_s, ptr %4, i32 0, i32 0
  %5 = load ptr, ptr %next_in, align 8
  %6 = load i64, ptr %size.addr, align 8
  call void @crc_fold_copy(ptr noundef %2, ptr noundef %3, ptr noundef %5, i64 noundef %6)
  br label %return

if.end:                                           ; preds = %entry
  %7 = load ptr, ptr %dst.addr, align 8
  %8 = load ptr, ptr %strm.addr, align 8
  %next_in1 = getelementptr inbounds %struct.z_stream_s, ptr %8, i32 0, i32 0
  %9 = load ptr, ptr %next_in1, align 8
  %10 = load i64, ptr %size.addr, align 8
  call void @llvm.memcpy.p0.p0.i64(ptr align 1 %7, ptr align 1 %9, i64 %10, i1 false)
  %11 = load ptr, ptr %strm.addr, align 8
  %adler = getelementptr inbounds %struct.z_stream_s, ptr %11, i32 0, i32 12
  %12 = load i64, ptr %adler, align 8
  %13 = load ptr, ptr %dst.addr, align 8
  %14 = load i64, ptr %size.addr, align 8
  %conv = trunc i64 %14 to i32
  %call = call i64 @MOZ_Z_crc32(i64 noundef %12, ptr noundef %13, i32 noundef %conv)
  %15 = load ptr, ptr %strm.addr, align 8
  %adler2 = getelementptr inbounds %struct.z_stream_s, ptr %15, i32 0, i32 12
  store i64 %call, ptr %adler2, align 8
  br label %return

return:                                           ; preds = %if.end, %if.then
  ret void
}