; Function Attrs: nounwind uwtable
define dso_local void @MOZ_Z__copy_with_crc(ptr noundef captures(none) %strm, ptr noundef %dst, i64 noundef %size) local_unnamed_addr #3 {
entry:
  %0 = load i32, ptr @x86_cpu_enable_simd, align 4
  %tobool.not = icmp eq i32 %0, 0
  br i1 %tobool.not, label %if.end, label %if.then

if.then:                                          ; preds = %entry
  %state = getelementptr inbounds nuw i8, ptr %strm, i64 56
  %1 = load ptr, ptr %state, align 8
  %2 = load ptr, ptr %strm, align 8
  tail call void @crc_fold_copy(ptr noundef %1, ptr noundef %dst, ptr noundef %2, i64 noundef %size) #6
  br label %return

if.end:                                           ; preds = %entry
  %3 = load ptr, ptr %strm, align 8
  tail call void @llvm.memcpy.p0.p0.i64(ptr align 1 %dst, ptr align 1 %3, i64 %size, i1 false)
  %adler = getelementptr inbounds nuw i8, ptr %strm, i64 96
  %4 = load i64, ptr %adler, align 8
  %conv = trunc i64 %size to i32
  %call = tail call i64 @MOZ_Z_crc32(i64 noundef %4, ptr noundef %dst, i32 noundef %conv)
  store i64 %call, ptr %adler, align 8
  br label %return

return:                                           ; preds = %if.end, %if.then
  ret void
}